; Function Attrs: nofree norecurse nosync nounwind memory(argmem: readwrite) uwtable
define internal void @rgb12leToUV_c(ptr noundef writeonly captures(none) %0, ptr noundef writeonly captures(none) %1, ptr readnone captures(none) %2, ptr noundef readonly captures(none) %3, ptr readnone captures(none) %4, i32 noundef %5, ptr noundef readonly captures(none) %6, ptr readnone captures(none) %7) #1 {
  %9 = getelementptr inbounds nuw i8, ptr %6, i64 12
  %10 = load i32, ptr %9, align 4, !tbaa !42
  %11 = getelementptr inbounds nuw i8, ptr %6, i64 16
  %12 = load i32, ptr %11, align 4, !tbaa !42
  %13 = shl nsw i32 %12, 4
  %14 = getelementptr inbounds nuw i8, ptr %6, i64 20
  %15 = load i32, ptr %14, align 4, !tbaa !42
  %16 = shl nsw i32 %15, 8
  %17 = getelementptr inbounds nuw i8, ptr %6, i64 24
  %18 = load i32, ptr %17, align 4, !tbaa !42
  %19 = getelementptr inbounds nuw i8, ptr %6, i64 28
  %20 = load i32, ptr %19, align 4, !tbaa !42
  %21 = shl nsw i32 %20, 4
  %22 = getelementptr inbounds nuw i8, ptr %6, i64 32
  %23 = load i32, ptr %22, align 4, !tbaa !42
  %24 = shl nsw i32 %23, 8
  %25 = icmp sgt i32 %5, 0
  br i1 %25, label %.lr.ph.preheader, label %rgb16_32ToUV_c_template.exit

.lr.ph.preheader:                                 ; preds = %8
  %wide.trip.count = zext nneg i32 %5 to i64
  br label %.lr.ph

.lr.ph:                                           ; preds = %.lr.ph.preheader, %.lr.ph
  %indvars.iv = phi i64 [ 0, %.lr.ph.preheader ], [ %indvars.iv.next, %.lr.ph ]
  %26 = shl nuw nsw i64 %indvars.iv, 1
  %27 = getelementptr inbounds nuw i8, ptr %3, i64 %26
  %28 = load i16, ptr %27, align 1, !tbaa !34
  %29 = zext i16 %28 to i32
  %30 = and i32 %29, 15
  %31 = and i32 %29, 240
  %32 = and i32 %29, 3840
  %33 = mul nsw i32 %32, %10
  %34 = mul nsw i32 %13, %31
  %35 = mul nsw i32 %16, %30
  %36 = add i32 %34, 67112960
  %37 = add i32 %36, %33
  %38 = add i32 %37, %35
  %39 = lshr i32 %38, 13
  %40 = trunc i32 %39 to i16
  %41 = getelementptr inbounds nuw i16, ptr %0, i64 %indvars.iv
  store i16 %40, ptr %41, align 2, !tbaa !43
  %42 = mul nsw i32 %32, %18
  %43 = mul nsw i32 %21, %31
  %44 = mul nsw i32 %24, %30
  %45 = add i32 %43, 67112960
  %46 = add i32 %45, %42
  %47 = add i32 %46, %44
  %48 = lshr i32 %47, 13
  %49 = trunc i32 %48 to i16
  %50 = getelementptr inbounds nuw i16, ptr %1, i64 %indvars.iv
  store i16 %49, ptr %50, align 2, !tbaa !43
  %indvars.iv.next = add nuw nsw i64 %indvars.iv, 1
  %exitcond.not = icmp eq i64 %indvars.iv.next, %wide.trip.count
  br i1 %exitcond.not, label %rgb16_32ToUV_c_template.exit, label %.lr.ph, !llvm.loop !86

rgb16_32ToUV_c_template.exit:                     ; preds = %.lr.ph, %8
  ret void
}